; Function Attrs: mustprogress nounwind uwtable
define dso_local void @_ZN5clang5arcmt12FileRemapper16getRemapInfoFileB5cxx11EN4llvm9StringRefE(ptr dead_on_unwind noalias writable sret(%"class.std::__cxx11::basic_string") align 8 %0, ptr nonnull readnone align 8 captures(none) %1, ptr %2, i64 %3) local_unnamed_addr #0 align 2 {
  %5 = alloca %"class.std::allocator", align 1
  %6 = alloca %"class.llvm::SmallString", align 8
  %7 = alloca %"class.llvm::Twine", align 8
  %8 = alloca %"class.llvm::Twine", align 8
  %9 = alloca %"class.llvm::Twine", align 8
  %10 = alloca %"class.llvm::Twine", align 8
  %11 = getelementptr inbounds i8, ptr %2, i64 %3
  %12 = getelementptr inbounds nuw i8, ptr %6, i64 24
  call void @_ZN4llvm15SmallVectorBaseImEC2EPvm(ptr noundef nonnull align 8 dereferenceable(152) %6, ptr noundef nonnull %12, i64 noundef 128) #17
  call void @_ZN4llvm15SmallVectorImplIcE6appendIPKcvEEvT_S5_(ptr noundef nonnull align 8 dereferenceable(152) %6, ptr noundef %2, ptr noundef %11)
  %13 = getelementptr inbounds nuw i8, ptr %7, i64 32
  %14 = getelementptr inbounds nuw i8, ptr %7, i64 33
  store i8 1, ptr %14, align 1
  store ptr @.str, ptr %7, align 8
  store i8 3, ptr %13, align 8
  %15 = getelementptr inbounds nuw i8, ptr %8, i64 32
  %16 = getelementptr inbounds nuw i8, ptr %9, i64 32
  store i16 257, ptr %15, align 8
  %17 = getelementptr inbounds nuw i8, ptr %10, i64 32
  store i16 257, ptr %16, align 8
  store i16 257, ptr %17, align 8
  call void @_ZN4llvm3sys4path6appendERNS_15SmallVectorImplIcEERKNS_5TwineES7_S7_S7_(ptr noundef nonnull align 8 dereferenceable(24) %6, ptr noundef nonnull align 8 dereferenceable(34) %7, ptr noundef nonnull align 8 dereferenceable(34) %8, ptr noundef nonnull align 8 dereferenceable(34) %9, ptr noundef nonnull align 8 dereferenceable(34) %10) #17
  call void @llvm.lifetime.start.p0(i64 1, ptr nonnull %5)
  %18 = load ptr, ptr %6, align 8, !noalias !11
  %19 = call noundef i64 @_ZNK4llvm15SmallVectorBaseImE4sizeEv(ptr noundef nonnull align 8 dereferenceable(152) %6) #17, !noalias !11
  call void @_ZNSaIcEC1Ev(ptr noundef nonnull align 1 dereferenceable(1) %5) #17, !noalias !11
  call void @_ZNSt7__cxx1112basic_stringIcSt11char_traitsIcESaIcEEC1EPKcmRKS3_(ptr noundef nonnull align 8 dereferenceable(32) %0, ptr noundef %18, i64 noundef %19, ptr noundef nonnull align 1 dereferenceable(1) %5) #17
  call void @_ZNSaIcED1Ev(ptr noundef nonnull align 1 dereferenceable(1) %5) #17
  call void @llvm.lifetime.end.p0(i64 1, ptr nonnull %5)
  %20 = call noundef i64 @_ZNK4llvm15SmallVectorBaseImE4sizeEv(ptr noundef nonnull align 8 dereferenceable(152) %6) #17
  %21 = load ptr, ptr %6, align 8
  %22 = icmp eq ptr %21, %12
  br i1 %22, label %_ZN4llvm11SmallStringILj128EED2Ev.exit, label %23

23:                                               ; preds = %4
  call void @free(ptr noundef %21) #17
  br label %_ZN4llvm11SmallStringILj128EED2Ev.exit

_ZN4llvm11SmallStringILj128EED2Ev.exit:           ; preds = %4, %23
  ret void
}